; Function Attrs: nounwind uwtable
define internal void @defMtxDestroy(ptr noundef %0, ptr noundef %1) #6 {
  %3 = tail call i32 @pthread_mutex_destroy(ptr noundef %1) #20
  %.not.i = icmp eq ptr %1, null
  br i1 %.not.i, label %_cmsFree.exit, label %4

4:                                                ; preds = %2
  %5 = tail call ptr @_cmsContextGetClientChunk(ptr noundef %0, i32 noundef 4) #20
  %6 = getelementptr inbounds i8, ptr %5, i64 16
  %7 = load ptr, ptr %6, align 8
  tail call void %7(ptr noundef %0, ptr noundef nonnull %1) #20
  br label %_cmsFree.exit

_cmsFree.exit:                                    ; preds = %2, %4
  ret void
}